; Function Attrs: mustprogress ssp uwtable
define hidden void @_ZN6open3d13visualization4glsl13ShaderWrapper14ReleaseProgramEv(ptr noundef nonnull align 8 captures(none) dereferenceable(72) %0) local_unnamed_addr #4 align 2 {
  %2 = getelementptr inbounds nuw i8, ptr %0, i64 32
  %3 = load i8, ptr %2, align 8, !tbaa !38, !range !44, !noundef !45
  %4 = trunc nuw i8 %3 to i1
  br i1 %4, label %5, label %9

5:                                                ; preds = %1
  %6 = load ptr, ptr @__glewDeleteProgram, align 8, !tbaa !71
  %7 = getelementptr inbounds nuw i8, ptr %0, i64 20
  %8 = load i32, ptr %7, align 4, !tbaa !634
  tail call void %6(i32 noundef %8)
  store i8 0, ptr %2, align 8, !tbaa !38
  br label %9

9:                                                ; preds = %5, %1
  ret void
}